; ModuleID = '22/85.c'
source_filename = "22/85.c"
target datalayout = "e-m:e-p270:32:32-p271:32:32-p272:64:64-i64:64-f80:128-n8:16:32:64-S128"
target triple = "x86_64-pc-linux-gnu"

@.str = private unnamed_addr constant [3 x i8] c"%d\00", align 1
@.str.1 = private unnamed_addr constant [3 x i8] c"%c\00", align 1
@.str.2 = private unnamed_addr constant [3 x i8] c"No\00", align 1

; Function Attrs: noinline nounwind uwtable
define dso_local i32 @main() #0 {
  %1 = alloca i32, align 4
  %2 = alloca [1000 x i32], align 16
  %3 = alloca i32, align 4
  %4 = alloca i32, align 4
  %5 = alloca i8, align 1
  %6 = alloca i32, align 4
  %7 = alloca i32, align 4
  store i32 0, i32* %1, align 4
  store i32 0, i32* %3, align 4
  store i32 -1, i32* %6, align 4
  store i32 -1111, i32* %7, align 4
  br label %8

8:                                                ; preds = %47, %0
  %9 = load i32, i32* %3, align 4
  %10 = sext i32 %9 to i64
  %11 = getelementptr inbounds [1000 x i32], [1000 x i32]* %2, i64 0, i64 %10
  %12 = call i32 (i8*, ...) @__isoc99_scanf(i8* getelementptr inbounds ([3 x i8], [3 x i8]* @.str, i64 0, i64 0), i32* %11)
  %13 = icmp ne i32 %12, -1
  br i1 %13, label %14, label %51

14:                                               ; preds = %8
  %15 = load i32, i32* %3, align 4
  %16 = sext i32 %15 to i64
  %17 = getelementptr inbounds [1000 x i32], [1000 x i32]* %2, i64 0, i64 %16
  %18 = load i32, i32* %17, align 4
  %19 = load i32, i32* %6, align 4
  %20 = icmp sgt i32 %18, %19
  br i1 %20, label %21, label %27

21:                                               ; preds = %14
  %22 = load i32, i32* %6, align 4
  store i32 %22, i32* %7, align 4
  %23 = load i32, i32* %3, align 4
  %24 = sext i32 %23 to i64
  %25 = getelementptr inbounds [1000 x i32], [1000 x i32]* %2, i64 0, i64 %24
  %26 = load i32, i32* %25, align 4
  store i32 %26, i32* %6, align 4
  br label %47

27:                                               ; preds = %14
  %28 = load i32, i32* %3, align 4
  %29 = sext i32 %28 to i64
  %30 = getelementptr inbounds [1000 x i32], [1000 x i32]* %2, i64 0, i64 %29
  %31 = load i32, i32* %30, align 4
  %32 = load i32, i32* %7, align 4
  %33 = icmp sgt i32 %31, %32
  br i1 %33, label %34, label %46

34:                                               ; preds = %27
  %35 = load i32, i32* %3, align 4
  %36 = sext i32 %35 to i64
  %37 = getelementptr inbounds [1000 x i32], [1000 x i32]* %2, i64 0, i64 %36
  %38 = load i32, i32* %37, align 4
  %39 = load i32, i32* %6, align 4
  %40 = icmp ne i32 %38, %39
  br i1 %40, label %41, label %46

41:                                               ; preds = %34
  %42 = load i32, i32* %3, align 4
  %43 = sext i32 %42 to i64
  %44 = getelementptr inbounds [1000 x i32], [1000 x i32]* %2, i64 0, i64 %43
  %45 = load i32, i32* %44, align 4
  store i32 %45, i32* %7, align 4
  br label %46

46:                                               ; preds = %41, %34, %27
  br label %47

47:                                               ; preds = %46, %21
  %48 = call i32 (i8*, ...) @__isoc99_scanf(i8* getelementptr inbounds ([3 x i8], [3 x i8]* @.str.1, i64 0, i64 0), i8* %5)
  %49 = load i32, i32* %3, align 4
  %50 = add nsw i32 %49, 1
  store i32 %50, i32* %3, align 4
  br label %8

51:                                               ; preds = %8
  %52 = load i32, i32* %3, align 4
  %53 = icmp eq i32 %52, 0
  br i1 %53, label %60, label %54

54:                                               ; preds = %51
  %55 = load i32, i32* %3, align 4
  %56 = icmp eq i32 %55, 1
  br i1 %56, label %60, label %57

57:                                               ; preds = %54
  %58 = load i32, i32* %7, align 4
  %59 = icmp eq i32 %58, -1
  br i1 %59, label %60, label %62

60:                                               ; preds = %57, %54, %51
  %61 = call i32 (i8*, ...) @printf(i8* getelementptr inbounds ([3 x i8], [3 x i8]* @.str.2, i64 0, i64 0))
  br label %102

62:                                               ; preds = %57
  %63 = load i32, i32* %3, align 4
  %64 = sext i32 %63 to i64
  %65 = getelementptr inbounds [1000 x i32], [1000 x i32]* %2, i64 0, i64 %64
  %66 = load i32, i32* %65, align 4
  %67 = load i32, i32* %6, align 4
  %68 = icmp sgt i32 %66, %67
  br i1 %68, label %69, label %75

69:                                               ; preds = %62
  %70 = load i32, i32* %6, align 4
  store i32 %70, i32* %7, align 4
  %71 = load i32, i32* %3, align 4
  %72 = sext i32 %71 to i64
  %73 = getelementptr inbounds [1000 x i32], [1000 x i32]* %2, i64 0, i64 %72
  %74 = load i32, i32* %73, align 4
  store i32 %74, i32* %6, align 4
  br label %95

75:                                               ; preds = %62
  %76 = load i32, i32* %3, align 4
  %77 = sext i32 %76 to i64
  %78 = getelementptr inbounds [1000 x i32], [1000 x i32]* %2, i64 0, i64 %77
  %79 = load i32, i32* %78, align 4
  %80 = load i32, i32* %7, align 4
  %81 = icmp sgt i32 %79, %80
  br i1 %81, label %82, label %94

82:                                               ; preds = %75
  %83 = load i32, i32* %3, align 4
  %84 = sext i32 %83 to i64
  %85 = getelementptr inbounds [1000 x i32], [1000 x i32]* %2, i64 0, i64 %84
  %86 = load i32, i32* %85, align 4
  %87 = load i32, i32* %6, align 4
  %88 = icmp ne i32 %86, %87
  br i1 %88, label %89, label %94

89:                                               ; preds = %82
  %90 = load i32, i32* %3, align 4
  %91 = sext i32 %90 to i64
  %92 = getelementptr inbounds [1000 x i32], [1000 x i32]* %2, i64 0, i64 %91
  %93 = load i32, i32* %92, align 4
  store i32 %93, i32* %7, align 4
  br label %94

94:                                               ; preds = %89, %82, %75
  br label %95

95:                                               ; preds = %94, %69
  %96 = load i32, i32* %7, align 4
  %97 = icmp ne i32 %96, -1111
  br i1 %97, label %98, label %101

98:                                               ; preds = %95
  %99 = load i32, i32* %7, align 4
  %100 = call i32 (i8*, ...) @printf(i8* getelementptr inbounds ([3 x i8], [3 x i8]* @.str, i64 0, i64 0), i32 %99)
  br label %101

101:                                              ; preds = %98, %95
  br label %102

102:                                              ; preds = %101, %60
  %103 = load i32, i32* %1, align 4
  ret i32 %103
}

declare dso_local i32 @__isoc99_scanf(i8*, ...) #1

declare dso_local i32 @printf(i8*, ...) #1


!llvm.module.flags = !{!0}
!llvm.ident = !{!1}

!0 = !{i32 1, !"wchar_size", i32 4}
!1 = !{!"clang version 10.0.0-4ubuntu1 "}
